; Function Attrs: mustprogress nofree norecurse nosync nounwind memory(read, argmem: readwrite, inaccessiblemem: none) uwtable
define internal void @_ZN2cv12cpu_baseline12_GLOBAL__N_116vlineSmooth3N121IhNS_12_GLOBAL__N_113ufixedpoint16EEEvPKPKT0_S7_iPT_i(ptr noundef readonly captures(none) %0, ptr readnone captures(none) %1, i32 %2, ptr noundef writeonly captures(none) %3, i32 noundef %4) #17 {
  %6 = icmp sgt i32 %4, 0
  br i1 %6, label %.lr.ph, label %._crit_edge

.lr.ph:                                           ; preds = %5
  %7 = getelementptr inbounds nuw i8, ptr %0, i64 16
  %8 = getelementptr inbounds nuw i8, ptr %0, i64 8
  %wide.trip.count = zext nneg i32 %4 to i64
  br label %9

9:                                                ; preds = %.lr.ph, %9
  %indvars.iv = phi i64 [ 0, %.lr.ph ], [ %indvars.iv.next, %9 ]
  %10 = load ptr, ptr %0, align 8, !tbaa !901
  %11 = getelementptr inbounds nuw i16, ptr %10, i64 %indvars.iv
  %12 = load i16, ptr %11, align 2, !tbaa !400
  %13 = zext i16 %12 to i32
  %14 = load ptr, ptr %7, align 8, !tbaa !901
  %15 = getelementptr inbounds nuw i16, ptr %14, i64 %indvars.iv
  %16 = load i16, ptr %15, align 2, !tbaa !400
  %17 = zext i16 %16 to i32
  %18 = load ptr, ptr %8, align 8, !tbaa !901
  %19 = getelementptr inbounds nuw i16, ptr %18, i64 %indvars.iv
  %20 = load i16, ptr %19, align 2, !tbaa !400
  %21 = zext i16 %20 to i32
  %22 = shl nuw nsw i32 %21, 1
  %23 = add nuw nsw i32 %13, 512
  %24 = add nuw nsw i32 %23, %17
  %25 = add nuw nsw i32 %24, %22
  %26 = lshr i32 %25, 10
  %27 = trunc i32 %26 to i8
  %28 = getelementptr inbounds nuw i8, ptr %3, i64 %indvars.iv
  store i8 %27, ptr %28, align 1, !tbaa !282
  %indvars.iv.next = add nuw nsw i64 %indvars.iv, 1
  %exitcond.not = icmp eq i64 %indvars.iv.next, %wide.trip.count
  br i1 %exitcond.not, label %._crit_edge, label %9, !llvm.loop !907

._crit_edge:                                      ; preds = %9, %5
  ret void
}